target datalayout = "e-m:e-p270:32:32-p271:32:32-p272:64:64-i64:64-i128:128-f80:128-n8:16:32:64-S128"
target triple = "x86_64-pc-linux-gnu"

%struct.Vec_Int_t_ = type { i32, i32, ptr }
%struct.Abc_Obj_t_ = type { ptr, ptr, i32, i32, %struct.Vec_Int_t_, %struct.Vec_Int_t_, %union.anon, %union.anon.0 }
%union.anon = type { ptr }
%union.anon.0 = type { ptr }

; Function Attrs: nounwind uwtable
define internal ptr @Abc_ObjRegular(ptr noundef %0) #0 {
  %2 = alloca ptr, align 8
  store ptr %0, ptr %2, align 8
  %3 = load ptr, ptr %2, align 8
  %4 = ptrtoint ptr %3 to i64
  %5 = and i64 %4, -2
  %6 = inttoptr i64 %5 to ptr
  ret ptr %6
}

; Function Attrs: nounwind uwtable
define i32 @Abc_NodeCompareLevelsDecrease(ptr noundef %0, ptr noundef %1) #0 {
  %3 = alloca i32, align 4
  %4 = alloca ptr, align 8
  %5 = alloca ptr, align 8
  %6 = alloca i32, align 4
  store ptr %0, ptr %4, align 8
  store ptr %1, ptr %5, align 8
  %7 = load ptr, ptr %4, align 8
  %8 = load ptr, ptr %7, align 8
  %9 = call ptr @Abc_ObjRegular(ptr noundef %8)
  %10 = getelementptr inbounds %struct.Abc_Obj_t_, ptr %9, i32 0, i32 3
  %11 = load i32, ptr %10, align 4
  %12 = lshr i32 %11, 12
  %13 = load ptr, ptr %5, align 8
  %14 = load ptr, ptr %13, align 8
  %15 = call ptr @Abc_ObjRegular(ptr noundef %14)
  %16 = getelementptr inbounds %struct.Abc_Obj_t_, ptr %15, i32 0, i32 3
  %17 = load i32, ptr %16, align 4
  %18 = lshr i32 %17, 12
  %19 = sub nsw i32 %12, %18
  store i32 %19, ptr %6, align 4
  %20 = load i32, ptr %6, align 4
  %21 = icmp sgt i32 %20, 0
  br i1 %21, label %22, label %23

22:                                               ; preds = %2
  store i32 -1, ptr %3, align 4
  br label %47

23:                                               ; preds = %2
  %24 = load i32, ptr %6, align 4
  %25 = icmp slt i32 %24, 0
  br i1 %25, label %26, label %27

26:                                               ; preds = %23
  store i32 1, ptr %3, align 4
  br label %47

27:                                               ; preds = %23
  %28 = load ptr, ptr %4, align 8
  %29 = load ptr, ptr %28, align 8
  %30 = call ptr @Abc_ObjRegular(ptr noundef %29)
  %31 = getelementptr inbounds %struct.Abc_Obj_t_, ptr %30, i32 0, i32 2
  %32 = load i32, ptr %31, align 8
  %33 = load ptr, ptr %5, align 8
  %34 = load ptr, ptr %33, align 8
  %35 = call ptr @Abc_ObjRegular(ptr noundef %34)
  %36 = getelementptr inbounds %struct.Abc_Obj_t_, ptr %35, i32 0, i32 2
  %37 = load i32, ptr %36, align 8
  %38 = sub nsw i32 %32, %37
  store i32 %38, ptr %6, align 4
  %39 = load i32, ptr %6, align 4
  %40 = icmp sgt i32 %39, 0
  br i1 %40, label %41, label %42

41:                                               ; preds = %27
  store i32 -1, ptr %3, align 4
  br label %47

42:                                               ; preds = %27
  %43 = load i32, ptr %6, align 4
  %44 = icmp slt i32 %43, 0
  br i1 %44, label %45, label %46

45:                                               ; preds = %42
  store i32 1, ptr %3, align 4
  br label %47

46:                                               ; preds = %42
  store i32 0, ptr %3, align 4
  br label %47

47:                                               ; preds = %46, %45, %41, %26, %22
  %48 = load i32, ptr %3, align 4
  ret i32 %48
}