; Function Attrs: mustprogress nofree norecurse nosync nounwind willreturn memory(read, inaccessiblemem: none) uwtable
define range(i32 -1, 2) i32 @Abc_NodeCompareLevelsDecrease(ptr noundef readonly captures(none) %0, ptr noundef readonly captures(none) %1) local_unnamed_addr #4 {
  %3 = load ptr, ptr %0, align 8
  %4 = ptrtoint ptr %3 to i64
  %5 = and i64 %4, -2
  %6 = inttoptr i64 %5 to ptr
  %7 = getelementptr inbounds nuw i8, ptr %6, i64 20
  %8 = load i32, ptr %7, align 4
  %9 = lshr i32 %8, 12
  %10 = load ptr, ptr %1, align 8
  %11 = ptrtoint ptr %10 to i64
  %12 = and i64 %11, -2
  %13 = inttoptr i64 %12 to ptr
  %14 = getelementptr inbounds nuw i8, ptr %13, i64 20
  %15 = load i32, ptr %14, align 4
  %16 = lshr i32 %15, 12
  %17 = sub nsw i32 %9, %16
  %18 = icmp sgt i32 %17, 0
  br i1 %18, label %28, label %19

19:                                               ; preds = %2
  %20 = icmp slt i32 %17, 0
  br i1 %20, label %28, label %21

21:                                               ; preds = %19
  %22 = getelementptr inbounds nuw i8, ptr %6, i64 16
  %23 = load i32, ptr %22, align 8
  %24 = getelementptr inbounds nuw i8, ptr %13, i64 16
  %25 = load i32, ptr %24, align 8
  %26 = icmp sgt i32 %23, %25
  br i1 %26, label %28, label %27

27:                                               ; preds = %21
  %.not = icmp ne i32 %23, %25
  %. = zext i1 %.not to i32
  br label %28

28:                                               ; preds = %27, %21, %19, %2
  %.0 = phi i32 [ -1, %2 ], [ 1, %19 ], [ -1, %21 ], [ %., %27 ]
  ret i32 %.0
}